; Function Attrs: nounwind sspstrong uwtable
define internal range(i64 1, 0) i64 @ossl_bn_ucmp(i64 noundef %0, i64 noundef %1) #0 {
  %3 = alloca i64, align 8
  store i64 %1, ptr %3, align 8, !tbaa !6
  %4 = call ptr @ossl_bn_value_ptr(ptr noundef nonnull %3)
  %5 = call ptr @rb_check_typeddata(i64 noundef %0, ptr noundef nonnull @ossl_bn_type) #11
  %.not = icmp eq ptr %5, null
  br i1 %.not, label %6, label %8

6:                                                ; preds = %2
  %7 = load i64, ptr @rb_eRuntimeError, align 8, !tbaa !6
  call void (i64, ptr, ...) @ossl_raise(i64 noundef %7, ptr noundef nonnull @.str) #12
  unreachable

8:                                                ; preds = %2
  %9 = call i32 @BN_ucmp(ptr noundef nonnull %5, ptr noundef nonnull %4) #11
  %10 = sext i32 %9 to i64
  %11 = shl nsw i64 %10, 1
  %12 = or disjoint i64 %11, 1
  ret i64 %12
}